; Function Attrs: nounwind uwtable
define void @dt_bauhaus_widget_set_quad_paint(ptr noundef %0, ptr noundef %1, i32 noundef %2, ptr noundef %3) local_unnamed_addr #0 {
  %5 = load atomic i64, ptr @dt_bh_get_type.static_g_define_type_id seq_cst, align 8
  %.not.i.i = icmp eq i64 %5, 0
  br i1 %.not.i.i, label %6, label %DT_BAUHAUS_WIDGET.exit

6:                                                ; preds = %4
  %7 = tail call i32 @g_once_init_enter(ptr noundef nonnull @dt_bh_get_type.static_g_define_type_id) #19
  %.not4.i.i = icmp eq i32 %7, 0
  br i1 %.not4.i.i, label %DT_BAUHAUS_WIDGET.exit, label %8

8:                                                ; preds = %6
  %9 = tail call fastcc i64 @dt_bh_get_type_once()
  tail call void @g_once_init_leave(ptr noundef nonnull @dt_bh_get_type.static_g_define_type_id, i64 noundef %9) #19
  br label %DT_BAUHAUS_WIDGET.exit

DT_BAUHAUS_WIDGET.exit:                           ; preds = %4, %6, %8
  %10 = load i64, ptr @dt_bh_get_type.static_g_define_type_id, align 8, !tbaa !6
  %11 = tail call ptr @g_type_check_instance_cast(ptr noundef %0, i64 noundef %10) #19
  %12 = getelementptr inbounds nuw i8, ptr %11, i64 344
  store ptr %1, ptr %12, align 8, !tbaa !196
  %13 = getelementptr inbounds nuw i8, ptr %11, i64 360
  store i32 %2, ptr %13, align 8, !tbaa !197
  %14 = getelementptr inbounds nuw i8, ptr %11, i64 368
  store ptr %3, ptr %14, align 8, !tbaa !198
  ret void
}